; ModuleID = '26/1095.c'
source_filename = "26/1095.c"
target datalayout = "e-m:e-p270:32:32-p271:32:32-p272:64:64-i64:64-f80:128-n8:16:32:64-S128"
target triple = "x86_64-pc-linux-gnu"

; Function Attrs: noinline nounwind uwtable
define dso_local i32 @main() #0 {
  %1 = alloca i32, align 4
  %2 = alloca [100 x i8], align 16
  %3 = alloca i32, align 4
  %4 = alloca i32, align 4
  %5 = alloca i32, align 4
  %6 = alloca i32, align 4
  store i32 0, i32* %1, align 4
  %7 = getelementptr inbounds [100 x i8], [100 x i8]* %2, i64 0, i64 0
  %8 = call i32 (i8*, ...) bitcast (i32 (...)* @gets to i32 (i8*, ...)*)(i8* %7)
  %9 = getelementptr inbounds [100 x i8], [100 x i8]* %2, i64 0, i64 0
  %10 = call i64 @strlen(i8* %9) #3
  %11 = trunc i64 %10 to i32
  store i32 %11, i32* %3, align 4
  store i32 %11, i32* %6, align 4
  store i32 1, i32* %4, align 4
  br label %12

12:                                               ; preds = %56, %0
  %13 = load i32, i32* %4, align 4
  %14 = load i32, i32* %3, align 4
  %15 = icmp slt i32 %13, %14
  br i1 %15, label %16, label %57

16:                                               ; preds = %12
  %17 = load i32, i32* %4, align 4
  %18 = sext i32 %17 to i64
  %19 = getelementptr inbounds [100 x i8], [100 x i8]* %2, i64 0, i64 %18
  %20 = load i8, i8* %19, align 1
  %21 = sext i8 %20 to i32
  %22 = icmp eq i32 %21, 32
  br i1 %22, label %23, label %53

23:                                               ; preds = %16
  %24 = load i32, i32* %4, align 4
  %25 = sub nsw i32 %24, 1
  %26 = sext i32 %25 to i64
  %27 = getelementptr inbounds [100 x i8], [100 x i8]* %2, i64 0, i64 %26
  %28 = load i8, i8* %27, align 1
  %29 = sext i8 %28 to i32
  %30 = icmp eq i32 %29, 32
  br i1 %30, label %31, label %53

31:                                               ; preds = %23
  %32 = load i32, i32* %4, align 4
  store i32 %32, i32* %5, align 4
  br label %33

33:                                               ; preds = %47, %31
  %34 = load i32, i32* %5, align 4
  %35 = load i32, i32* %6, align 4
  %36 = sub nsw i32 %35, 1
  %37 = icmp slt i32 %34, %36
  br i1 %37, label %38, label %50

38:                                               ; preds = %33
  %39 = load i32, i32* %5, align 4
  %40 = add nsw i32 %39, 1
  %41 = sext i32 %40 to i64
  %42 = getelementptr inbounds [100 x i8], [100 x i8]* %2, i64 0, i64 %41
  %43 = load i8, i8* %42, align 1
  %44 = load i32, i32* %5, align 4
  %45 = sext i32 %44 to i64
  %46 = getelementptr inbounds [100 x i8], [100 x i8]* %2, i64 0, i64 %45
  store i8 %43, i8* %46, align 1
  br label %47

47:                                               ; preds = %38
  %48 = load i32, i32* %5, align 4
  %49 = add nsw i32 %48, 1
  store i32 %49, i32* %5, align 4
  br label %33

50:                                               ; preds = %33
  %51 = load i32, i32* %6, align 4
  %52 = add nsw i32 %51, -1
  store i32 %52, i32* %6, align 4
  br label %56

53:                                               ; preds = %23, %16
  %54 = load i32, i32* %4, align 4
  %55 = add nsw i32 %54, 1
  store i32 %55, i32* %4, align 4
  br label %56

56:                                               ; preds = %53, %50
  br label %12

57:                                               ; preds = %12
  %58 = load i32, i32* %6, align 4
  %59 = sext i32 %58 to i64
  %60 = getelementptr inbounds [100 x i8], [100 x i8]* %2, i64 0, i64 %59
  store i8 0, i8* %60, align 1
  %61 = getelementptr inbounds [100 x i8], [100 x i8]* %2, i64 0, i64 0
  %62 = call i32 @puts(i8* %61)
  ret i32 0
}

declare dso_local i32 @gets(...) #1

; Function Attrs: nounwind readonly
declare dso_local i64 @strlen(i8*) #2

declare dso_local i32 @puts(i8*) #1


!llvm.module.flags = !{!0}
!llvm.ident = !{!1}

!0 = !{i32 1, !"wchar_size", i32 4}
!1 = !{!"clang version 10.0.0-4ubuntu1 "}
